; ModuleID = '26/554.c'
source_filename = "26/554.c"
target datalayout = "e-m:e-p270:32:32-p271:32:32-p272:64:64-i64:64-f80:128-n8:16:32:64-S128"
target triple = "x86_64-pc-linux-gnu"

@.str = private unnamed_addr constant [4 x i8] c"%s \00", align 1
@.str.1 = private unnamed_addr constant [4 x i8] c"%s\0A\00", align 1

; Function Attrs: noinline nounwind uwtable
define dso_local i32 @main() #0 {
  %1 = alloca i32, align 4
  %2 = alloca [200 x [30 x i8]], align 16
  %3 = alloca [10000 x i8], align 16
  %4 = alloca i32, align 4
  %5 = alloca i32, align 4
  %6 = alloca i32, align 4
  %7 = alloca i32, align 4
  store i32 0, i32* %1, align 4
  store i32 0, i32* %5, align 4
  store i32 0, i32* %6, align 4
  %8 = getelementptr inbounds [10000 x i8], [10000 x i8]* %3, i64 0, i64 0
  %9 = call i32 (i8*, ...) bitcast (i32 (...)* @gets to i32 (i8*, ...)*)(i8* %8)
  %10 = getelementptr inbounds [10000 x i8], [10000 x i8]* %3, i64 0, i64 0
  %11 = call i64 @strlen(i8* %10) #3
  %12 = trunc i64 %11 to i32
  store i32 %12, i32* %4, align 4
  store i32 0, i32* %7, align 4
  br label %13

13:                                               ; preds = %49, %0
  %14 = load i32, i32* %7, align 4
  %15 = load i32, i32* %4, align 4
  %16 = icmp sle i32 %14, %15
  br i1 %16, label %17, label %52

17:                                               ; preds = %13
  %18 = load i32, i32* %7, align 4
  %19 = sext i32 %18 to i64
  %20 = getelementptr inbounds [10000 x i8], [10000 x i8]* %3, i64 0, i64 %19
  %21 = load i8, i8* %20, align 1
  %22 = sext i8 %21 to i32
  %23 = icmp eq i32 %22, 32
  br i1 %23, label %24, label %36

24:                                               ; preds = %17
  %25 = load i32, i32* %6, align 4
  %26 = icmp eq i32 %25, 0
  br i1 %26, label %27, label %28

27:                                               ; preds = %24
  br label %49

28:                                               ; preds = %24
  %29 = load i32, i32* %5, align 4
  %30 = add nsw i32 %29, 1
  store i32 %30, i32* %5, align 4
  %31 = sext i32 %29 to i64
  %32 = getelementptr inbounds [200 x [30 x i8]], [200 x [30 x i8]]* %2, i64 0, i64 %31
  %33 = load i32, i32* %6, align 4
  %34 = sext i32 %33 to i64
  %35 = getelementptr inbounds [30 x i8], [30 x i8]* %32, i64 0, i64 %34
  store i8 0, i8* %35, align 1
  store i32 0, i32* %6, align 4
  br label %48

36:                                               ; preds = %17
  %37 = load i32, i32* %7, align 4
  %38 = sext i32 %37 to i64
  %39 = getelementptr inbounds [10000 x i8], [10000 x i8]* %3, i64 0, i64 %38
  %40 = load i8, i8* %39, align 1
  %41 = load i32, i32* %5, align 4
  %42 = sext i32 %41 to i64
  %43 = getelementptr inbounds [200 x [30 x i8]], [200 x [30 x i8]]* %2, i64 0, i64 %42
  %44 = load i32, i32* %6, align 4
  %45 = add nsw i32 %44, 1
  store i32 %45, i32* %6, align 4
  %46 = sext i32 %44 to i64
  %47 = getelementptr inbounds [30 x i8], [30 x i8]* %43, i64 0, i64 %46
  store i8 %40, i8* %47, align 1
  br label %48

48:                                               ; preds = %36, %28
  br label %49

49:                                               ; preds = %48, %27
  %50 = load i32, i32* %7, align 4
  %51 = add nsw i32 %50, 1
  store i32 %51, i32* %7, align 4
  br label %13

52:                                               ; preds = %13
  store i32 0, i32* %7, align 4
  br label %53

53:                                               ; preds = %74, %52
  %54 = load i32, i32* %7, align 4
  %55 = load i32, i32* %5, align 4
  %56 = icmp sle i32 %54, %55
  br i1 %56, label %57, label %77

57:                                               ; preds = %53
  %58 = load i32, i32* %7, align 4
  %59 = load i32, i32* %5, align 4
  %60 = icmp ne i32 %58, %59
  br i1 %60, label %61, label %67

61:                                               ; preds = %57
  %62 = load i32, i32* %7, align 4
  %63 = sext i32 %62 to i64
  %64 = getelementptr inbounds [200 x [30 x i8]], [200 x [30 x i8]]* %2, i64 0, i64 %63
  %65 = getelementptr inbounds [30 x i8], [30 x i8]* %64, i64 0, i64 0
  %66 = call i32 (i8*, ...) @printf(i8* getelementptr inbounds ([4 x i8], [4 x i8]* @.str, i64 0, i64 0), i8* %65)
  br label %73

67:                                               ; preds = %57
  %68 = load i32, i32* %7, align 4
  %69 = sext i32 %68 to i64
  %70 = getelementptr inbounds [200 x [30 x i8]], [200 x [30 x i8]]* %2, i64 0, i64 %69
  %71 = getelementptr inbounds [30 x i8], [30 x i8]* %70, i64 0, i64 0
  %72 = call i32 (i8*, ...) @printf(i8* getelementptr inbounds ([4 x i8], [4 x i8]* @.str.1, i64 0, i64 0), i8* %71)
  br label %73

73:                                               ; preds = %67, %61
  br label %74

74:                                               ; preds = %73
  %75 = load i32, i32* %7, align 4
  %76 = add nsw i32 %75, 1
  store i32 %76, i32* %7, align 4
  br label %53

77:                                               ; preds = %53
  ret i32 0
}

declare dso_local i32 @gets(...) #1

; Function Attrs: nounwind readonly
declare dso_local i64 @strlen(i8*) #2

declare dso_local i32 @printf(i8*, ...) #1


!llvm.module.flags = !{!0}
!llvm.ident = !{!1}

!0 = !{i32 1, !"wchar_size", i32 4}
!1 = !{!"clang version 10.0.0-4ubuntu1 "}
